target datalayout = "e-m:e-p270:32:32-p271:32:32-p272:64:64-i64:64-i128:128-f80:128-n8:16:32:64-S128"
target triple = "x86_64-pc-linux-gnu"

; Function Attrs: inlinehint nounwind willreturn memory(none) uwtable
define internal i32 @mid_pred(i32 noundef %0, i32 noundef %1, i32 noundef %2) #9 {
  %4 = alloca i32, align 4
  %5 = alloca i32, align 4
  %6 = alloca i32, align 4
  store i32 %0, ptr %4, align 4, !tbaa !37
  store i32 %1, ptr %5, align 4, !tbaa !37
  store i32 %2, ptr %6, align 4, !tbaa !37
  %7 = load i32, ptr %4, align 4, !tbaa !37
  %8 = load i32, ptr %5, align 4, !tbaa !37
  %9 = icmp sgt i32 %7, %8
  br i1 %9, label %10, label %24

10:                                               ; preds = %3
  %11 = load i32, ptr %6, align 4, !tbaa !37
  %12 = load i32, ptr %5, align 4, !tbaa !37
  %13 = icmp sgt i32 %11, %12
  br i1 %13, label %14, label %23

14:                                               ; preds = %10
  %15 = load i32, ptr %6, align 4, !tbaa !37
  %16 = load i32, ptr %4, align 4, !tbaa !37
  %17 = icmp sgt i32 %15, %16
  br i1 %17, label %18, label %20

18:                                               ; preds = %14
  %19 = load i32, ptr %4, align 4, !tbaa !37
  store i32 %19, ptr %5, align 4, !tbaa !37
  br label %22

20:                                               ; preds = %14
  %21 = load i32, ptr %6, align 4, !tbaa !37
  store i32 %21, ptr %5, align 4, !tbaa !37
  br label %22

22:                                               ; preds = %20, %18
  br label %23

23:                                               ; preds = %22, %10
  br label %38

24:                                               ; preds = %3
  %25 = load i32, ptr %5, align 4, !tbaa !37
  %26 = load i32, ptr %6, align 4, !tbaa !37
  %27 = icmp sgt i32 %25, %26
  br i1 %27, label %28, label %37

28:                                               ; preds = %24
  %29 = load i32, ptr %6, align 4, !tbaa !37
  %30 = load i32, ptr %4, align 4, !tbaa !37
  %31 = icmp sgt i32 %29, %30
  br i1 %31, label %32, label %34

32:                                               ; preds = %28
  %33 = load i32, ptr %6, align 4, !tbaa !37
  store i32 %33, ptr %5, align 4, !tbaa !37
  br label %36

34:                                               ; preds = %28
  %35 = load i32, ptr %4, align 4, !tbaa !37
  store i32 %35, ptr %5, align 4, !tbaa !37
  br label %36

36:                                               ; preds = %34, %32
  br label %37

37:                                               ; preds = %36, %24
  br label %38

38:                                               ; preds = %37, %23
  %39 = load i32, ptr %5, align 4, !tbaa !37
  ret i32 %39
}

; Function Attrs: nounwind uwtable
define internal i32 @get_cmy_scale(i32 noundef %0, i32 noundef %1, i32 noundef %2, i32 noundef %3, i32 noundef %4) #0 {
  %6 = alloca i32, align 4
  %7 = alloca i32, align 4
  %8 = alloca i32, align 4
  %9 = alloca i32, align 4
  %10 = alloca i32, align 4
  store i32 %0, ptr %6, align 4, !tbaa !37
  store i32 %1, ptr %7, align 4, !tbaa !37
  store i32 %2, ptr %8, align 4, !tbaa !37
  store i32 %3, ptr %9, align 4, !tbaa !37
  store i32 %4, ptr %10, align 4, !tbaa !37
  %11 = load i32, ptr %6, align 4, !tbaa !37
  %12 = load i32, ptr %7, align 4, !tbaa !37
  %13 = load i32, ptr %8, align 4, !tbaa !37
  %14 = call i32 @mid_pred(i32 noundef %11, i32 noundef %12, i32 noundef %13) #12
  %15 = load i32, ptr %9, align 4, !tbaa !37
  %16 = sub nsw i32 %14, %15
  ret i32 %16
}