; Function Attrs: mustprogress nofree norecurse nosync nounwind willreturn memory(none) uwtable
define internal i32 @get_cmy_scale(i32 noundef %0, i32 noundef %1, i32 noundef %2, i32 noundef %3, i32 %4) #7 {
  %6 = icmp sgt i32 %0, %1
  br i1 %6, label %7, label %10

7:                                                ; preds = %5
  %8 = icmp sgt i32 %2, %1
  br i1 %8, label %9, label %mid_pred.exit

9:                                                ; preds = %7
  %..i = tail call i32 @llvm.smin.i32(i32 %2, i32 %0)
  br label %mid_pred.exit

10:                                               ; preds = %5
  %11 = icmp sgt i32 %1, %2
  br i1 %11, label %12, label %mid_pred.exit

12:                                               ; preds = %10
  %.20.i = tail call i32 @llvm.smax.i32(i32 %2, i32 %0)
  br label %mid_pred.exit

mid_pred.exit:                                    ; preds = %7, %9, %10, %12
  %.0.i = phi i32 [ %1, %7 ], [ %1, %10 ], [ %..i, %9 ], [ %.20.i, %12 ]
  %13 = sub nsw i32 %.0.i, %3
  ret i32 %13
}